; Function Attrs: nounwind uwtable
define internal range(i32 -2147483648, 1) i32 @msf_read_header(ptr noundef %0) #1 {
  %2 = getelementptr inbounds nuw i8, ptr %0, i64 32
  %3 = load ptr, ptr %2, align 8, !tbaa !12
  %4 = tail call i64 @avio_skip(ptr noundef %3, i64 noundef 4) #6
  %5 = tail call ptr @avformat_new_stream(ptr noundef %0, ptr noundef null) #6
  %.not = icmp eq ptr %5, null
  br i1 %.not, label %90, label %6

6:                                                ; preds = %1
  %7 = getelementptr inbounds nuw i8, ptr %5, i64 16
  %8 = load ptr, ptr %7, align 8, !tbaa !27
  store i32 1, ptr %8, align 8, !tbaa !34
  %9 = load ptr, ptr %2, align 8, !tbaa !12
  %10 = tail call i32 @avio_rb32(ptr noundef %9) #6
  %11 = load ptr, ptr %2, align 8, !tbaa !12
  %12 = tail call i32 @avio_rb32(ptr noundef %11) #6
  %13 = load ptr, ptr %7, align 8, !tbaa !27
  %14 = getelementptr inbounds nuw i8, ptr %13, i64 132
  store i32 %12, ptr %14, align 4, !tbaa !37
  %15 = add i32 %12, -2097151
  %or.cond = icmp ult i32 %15, -2097150
  br i1 %or.cond, label %90, label %16

16:                                               ; preds = %6
  %17 = load ptr, ptr %2, align 8, !tbaa !12
  %18 = tail call i32 @avio_rb32(ptr noundef %17) #6
  %19 = load ptr, ptr %2, align 8, !tbaa !12
  %20 = tail call i32 @avio_rb32(ptr noundef %19) #6
  %21 = load ptr, ptr %7, align 8, !tbaa !27
  %22 = getelementptr inbounds nuw i8, ptr %21, i64 152
  store i32 %20, ptr %22, align 8, !tbaa !38
  %23 = icmp slt i32 %20, 1
  br i1 %23, label %90, label %24

24:                                               ; preds = %16
  switch i32 %10, label %77 [
    i32 0, label %78
    i32 1, label %25
    i32 3, label %26
    i32 4, label %31
    i32 5, label %31
    i32 6, label %31
    i32 7, label %75
  ]

25:                                               ; preds = %24
  br label %78

26:                                               ; preds = %24
  %27 = getelementptr inbounds nuw i8, ptr %21, i64 132
  %28 = load i32, ptr %27, align 4, !tbaa !37
  %29 = shl nsw i32 %28, 4
  %30 = getelementptr inbounds nuw i8, ptr %21, i64 156
  store i32 %29, ptr %30, align 4, !tbaa !39
  br label %78

31:                                               ; preds = %24, %24, %24
  %32 = icmp eq i32 %10, 4
  %33 = icmp eq i32 %10, 5
  %34 = select i1 %33, i32 152, i32 192
  %35 = select i1 %32, i32 96, i32 %34
  %36 = getelementptr inbounds nuw i8, ptr %21, i64 132
  %37 = load i32, ptr %36, align 4, !tbaa !37
  %38 = mul nsw i32 %37, %35
  %39 = getelementptr inbounds nuw i8, ptr %21, i64 156
  store i32 %38, ptr %39, align 4, !tbaa !39
  %40 = icmp sgt i32 %37, 31
  br i1 %40, label %90, label %41

41:                                               ; preds = %31
  %42 = tail call i32 @ff_alloc_extradata(ptr noundef nonnull %21, i32 noundef 14) #6
  %43 = icmp slt i32 %42, 0
  br i1 %43, label %90, label %44

44:                                               ; preds = %41
  %45 = load ptr, ptr %7, align 8, !tbaa !27
  %46 = getelementptr inbounds nuw i8, ptr %45, i64 16
  %47 = load ptr, ptr %46, align 8, !tbaa !40
  %48 = getelementptr inbounds nuw i8, ptr %45, i64 24
  %49 = load i32, ptr %48, align 8, !tbaa !41
  %50 = sext i32 %49 to i64
  tail call void @llvm.memset.p0.i64(ptr align 1 %47, i8 0, i64 %50, i1 false)
  %51 = load ptr, ptr %7, align 8, !tbaa !27
  %52 = getelementptr inbounds nuw i8, ptr %51, i64 16
  %53 = load ptr, ptr %52, align 8, !tbaa !40
  store i16 1, ptr %53, align 1, !tbaa !11
  %54 = load ptr, ptr %7, align 8, !tbaa !27
  %55 = getelementptr inbounds nuw i8, ptr %54, i64 132
  %56 = load i32, ptr %55, align 4, !tbaa !37
  %.tr = trunc i32 %56 to i16
  %57 = shl i16 %.tr, 11
  %58 = getelementptr inbounds nuw i8, ptr %54, i64 16
  %59 = load ptr, ptr %58, align 8, !tbaa !40
  %60 = getelementptr inbounds nuw i8, ptr %59, i64 2
  store i16 %57, ptr %60, align 1, !tbaa !11
  %61 = zext i1 %32 to i16
  %62 = load ptr, ptr %7, align 8, !tbaa !27
  %63 = getelementptr inbounds nuw i8, ptr %62, i64 16
  %64 = load ptr, ptr %63, align 8, !tbaa !40
  %65 = getelementptr inbounds nuw i8, ptr %64, i64 6
  store i16 %61, ptr %65, align 1, !tbaa !11
  %66 = load ptr, ptr %7, align 8, !tbaa !27
  %67 = getelementptr inbounds nuw i8, ptr %66, i64 16
  %68 = load ptr, ptr %67, align 8, !tbaa !40
  %69 = getelementptr inbounds nuw i8, ptr %68, i64 8
  store i16 %61, ptr %69, align 1, !tbaa !11
  %70 = load ptr, ptr %7, align 8, !tbaa !27
  %71 = getelementptr inbounds nuw i8, ptr %70, i64 16
  %72 = load ptr, ptr %71, align 8, !tbaa !40
  %73 = getelementptr inbounds nuw i8, ptr %72, i64 10
  store i16 1, ptr %73, align 1, !tbaa !11
  %74 = load ptr, ptr %7, align 8, !tbaa !27
  br label %78

75:                                               ; preds = %24
  %76 = getelementptr inbounds nuw i8, ptr %5, i64 808
  store i32 5, ptr %76, align 8, !tbaa !42
  br label %78

77:                                               ; preds = %24
  tail call void (ptr, ptr, ...) @avpriv_request_sample(ptr noundef nonnull %0, ptr noundef nonnull @.str.3, i32 noundef %10) #6
  br label %90

78:                                               ; preds = %24, %75, %44, %26, %25
  %.sink53 = phi ptr [ %21, %75 ], [ %74, %44 ], [ %21, %26 ], [ %21, %25 ], [ %21, %24 ]
  %.sink = phi i32 [ 86017, %75 ], [ 86047, %44 ], [ 69669, %26 ], [ 65536, %25 ], [ 65537, %24 ]
  %79 = getelementptr inbounds nuw i8, ptr %.sink53, i64 4
  store i32 %.sink, ptr %79, align 4, !tbaa !54
  %80 = tail call i32 @av_get_audio_frame_duration2(ptr noundef nonnull %.sink53, i32 noundef %18) #6
  %81 = sext i32 %80 to i64
  %82 = getelementptr inbounds nuw i8, ptr %5, i64 48
  store i64 %81, ptr %82, align 8, !tbaa !55
  %83 = load ptr, ptr %2, align 8, !tbaa !12
  %84 = tail call i64 @avio_seek(ptr noundef %83, i64 noundef 0, i32 noundef 1) #6
  %85 = sub nsw i64 64, %84
  %86 = tail call i64 @avio_skip(ptr noundef %83, i64 noundef %85) #6
  %87 = load ptr, ptr %7, align 8, !tbaa !27
  %88 = getelementptr inbounds nuw i8, ptr %87, i64 152
  %89 = load i32, ptr %88, align 8, !tbaa !38
  tail call void @avpriv_set_pts_info(ptr noundef nonnull %5, i32 noundef 64, i32 noundef 1, i32 noundef %89) #6
  br label %90

90:                                               ; preds = %41, %31, %16, %6, %1, %78, %77
  %.0 = phi i32 [ -1163346256, %77 ], [ 0, %78 ], [ -12, %1 ], [ -1094995529, %6 ], [ -1094995529, %16 ], [ -1094995529, %31 ], [ %42, %41 ]
  ret i32 %.0
}